; ModuleID = '21/1575.c'
source_filename = "21/1575.c"
target datalayout = "e-m:e-p270:32:32-p271:32:32-p272:64:64-i64:64-f80:128-n8:16:32:64-S128"
target triple = "x86_64-pc-linux-gnu"

@.str = private unnamed_addr constant [3 x i8] c"%d\00", align 1
@.str.1 = private unnamed_addr constant [6 x i8] c"%d,%d\00", align 1

; Function Attrs: noinline nounwind uwtable
define dso_local i32 @main() #0 {
  %1 = alloca i32, align 4
  %2 = alloca i32, align 4
  %3 = alloca [310 x i32], align 16
  %4 = alloca i32, align 4
  %5 = alloca i32, align 4
  %6 = alloca i32, align 4
  %7 = alloca i32, align 4
  %8 = alloca float, align 4
  %9 = alloca float, align 4
  %10 = alloca float, align 4
  store i32 0, i32* %1, align 4
  store i32 0, i32* %5, align 4
  %11 = call i32 (i8*, ...) @__isoc99_scanf(i8* getelementptr inbounds ([3 x i8], [3 x i8]* @.str, i64 0, i64 0), i32* %2)
  store i32 0, i32* %4, align 4
  br label %12

12:                                               ; preds = %27, %0
  %13 = load i32, i32* %4, align 4
  %14 = load i32, i32* %2, align 4
  %15 = icmp slt i32 %13, %14
  br i1 %15, label %16, label %30

16:                                               ; preds = %12
  %17 = load i32, i32* %4, align 4
  %18 = sext i32 %17 to i64
  %19 = getelementptr inbounds [310 x i32], [310 x i32]* %3, i64 0, i64 %18
  %20 = call i32 (i8*, ...) @__isoc99_scanf(i8* getelementptr inbounds ([3 x i8], [3 x i8]* @.str, i64 0, i64 0), i32* %19)
  %21 = load i32, i32* %4, align 4
  %22 = sext i32 %21 to i64
  %23 = getelementptr inbounds [310 x i32], [310 x i32]* %3, i64 0, i64 %22
  %24 = load i32, i32* %23, align 4
  %25 = load i32, i32* %5, align 4
  %26 = add nsw i32 %25, %24
  store i32 %26, i32* %5, align 4
  br label %27

27:                                               ; preds = %16
  %28 = load i32, i32* %4, align 4
  %29 = add nsw i32 %28, 1
  store i32 %29, i32* %4, align 4
  br label %12

30:                                               ; preds = %12
  %31 = load i32, i32* %5, align 4
  %32 = sitofp i32 %31 to float
  %33 = load i32, i32* %2, align 4
  %34 = sitofp i32 %33 to float
  %35 = fdiv float %32, %34
  store float %35, float* %8, align 4
  store i32 0, i32* %4, align 4
  br label %36

36:                                               ; preds = %77, %30
  %37 = load i32, i32* %4, align 4
  %38 = load i32, i32* %2, align 4
  %39 = icmp slt i32 %37, %38
  br i1 %39, label %40, label %80

40:                                               ; preds = %36
  %41 = load i32, i32* %4, align 4
  store i32 %41, i32* %7, align 4
  br label %42

42:                                               ; preds = %73, %40
  %43 = load i32, i32* %7, align 4
  %44 = load i32, i32* %2, align 4
  %45 = icmp slt i32 %43, %44
  br i1 %45, label %46, label %76

46:                                               ; preds = %42
  %47 = load i32, i32* %7, align 4
  %48 = sext i32 %47 to i64
  %49 = getelementptr inbounds [310 x i32], [310 x i32]* %3, i64 0, i64 %48
  %50 = load i32, i32* %49, align 4
  %51 = load i32, i32* %4, align 4
  %52 = sext i32 %51 to i64
  %53 = getelementptr inbounds [310 x i32], [310 x i32]* %3, i64 0, i64 %52
  %54 = load i32, i32* %53, align 4
  %55 = icmp slt i32 %50, %54
  br i1 %55, label %56, label %72

56:                                               ; preds = %46
  %57 = load i32, i32* %4, align 4
  %58 = sext i32 %57 to i64
  %59 = getelementptr inbounds [310 x i32], [310 x i32]* %3, i64 0, i64 %58
  %60 = load i32, i32* %59, align 4
  store i32 %60, i32* %6, align 4
  %61 = load i32, i32* %7, align 4
  %62 = sext i32 %61 to i64
  %63 = getelementptr inbounds [310 x i32], [310 x i32]* %3, i64 0, i64 %62
  %64 = load i32, i32* %63, align 4
  %65 = load i32, i32* %4, align 4
  %66 = sext i32 %65 to i64
  %67 = getelementptr inbounds [310 x i32], [310 x i32]* %3, i64 0, i64 %66
  store i32 %64, i32* %67, align 4
  %68 = load i32, i32* %6, align 4
  %69 = load i32, i32* %7, align 4
  %70 = sext i32 %69 to i64
  %71 = getelementptr inbounds [310 x i32], [310 x i32]* %3, i64 0, i64 %70
  store i32 %68, i32* %71, align 4
  br label %72

72:                                               ; preds = %56, %46
  br label %73

73:                                               ; preds = %72
  %74 = load i32, i32* %7, align 4
  %75 = add nsw i32 %74, 1
  store i32 %75, i32* %7, align 4
  br label %42

76:                                               ; preds = %42
  br label %77

77:                                               ; preds = %76
  %78 = load i32, i32* %4, align 4
  %79 = add nsw i32 %78, 1
  store i32 %79, i32* %4, align 4
  br label %36

80:                                               ; preds = %36
  %81 = load i32, i32* %2, align 4
  %82 = sub nsw i32 %81, 1
  %83 = sext i32 %82 to i64
  %84 = getelementptr inbounds [310 x i32], [310 x i32]* %3, i64 0, i64 %83
  %85 = load i32, i32* %84, align 4
  %86 = sitofp i32 %85 to float
  %87 = load float, float* %8, align 4
  %88 = fsub float %86, %87
  store float %88, float* %9, align 4
  %89 = load float, float* %8, align 4
  %90 = getelementptr inbounds [310 x i32], [310 x i32]* %3, i64 0, i64 0
  %91 = load i32, i32* %90, align 16
  %92 = sitofp i32 %91 to float
  %93 = fsub float %89, %92
  store float %93, float* %10, align 4
  %94 = load float, float* %9, align 4
  %95 = load float, float* %10, align 4
  %96 = fcmp oeq float %94, %95
  br i1 %96, label %97, label %106

97:                                               ; preds = %80
  %98 = getelementptr inbounds [310 x i32], [310 x i32]* %3, i64 0, i64 0
  %99 = load i32, i32* %98, align 16
  %100 = load i32, i32* %2, align 4
  %101 = sub nsw i32 %100, 1
  %102 = sext i32 %101 to i64
  %103 = getelementptr inbounds [310 x i32], [310 x i32]* %3, i64 0, i64 %102
  %104 = load i32, i32* %103, align 4
  %105 = call i32 (i8*, ...) @printf(i8* getelementptr inbounds ([6 x i8], [6 x i8]* @.str.1, i64 0, i64 0), i32 %99, i32 %104)
  br label %106

106:                                              ; preds = %97, %80
  %107 = load float, float* %9, align 4
  %108 = load float, float* %10, align 4
  %109 = fcmp ogt float %107, %108
  br i1 %109, label %110, label %117

110:                                              ; preds = %106
  %111 = load i32, i32* %2, align 4
  %112 = sub nsw i32 %111, 1
  %113 = sext i32 %112 to i64
  %114 = getelementptr inbounds [310 x i32], [310 x i32]* %3, i64 0, i64 %113
  %115 = load i32, i32* %114, align 4
  %116 = call i32 (i8*, ...) @printf(i8* getelementptr inbounds ([3 x i8], [3 x i8]* @.str, i64 0, i64 0), i32 %115)
  br label %117

117:                                              ; preds = %110, %106
  %118 = load float, float* %9, align 4
  %119 = load float, float* %10, align 4
  %120 = fcmp olt float %118, %119
  br i1 %120, label %121, label %125

121:                                              ; preds = %117
  %122 = getelementptr inbounds [310 x i32], [310 x i32]* %3, i64 0, i64 0
  %123 = load i32, i32* %122, align 16
  %124 = call i32 (i8*, ...) @printf(i8* getelementptr inbounds ([3 x i8], [3 x i8]* @.str, i64 0, i64 0), i32 %123)
  br label %126

125:                                              ; preds = %117
  br label %126

126:                                              ; preds = %125, %121
  ret i32 0
}

declare dso_local i32 @__isoc99_scanf(i8*, ...) #1

declare dso_local i32 @printf(i8*, ...) #1


!llvm.module.flags = !{!0}
!llvm.ident = !{!1}

!0 = !{i32 1, !"wchar_size", i32 4}
!1 = !{!"clang version 10.0.0-4ubuntu1 "}
